target datalayout = "e-m:e-p270:32:32-p271:32:32-p272:64:64-i64:64-f80:128-n8:16:32:64-S128"
target triple = "x86_64-pc-linux-gnu"

@.str = private unnamed_addr constant [3 x i8] c"%d\00", align 1
@.str.1 = private unnamed_addr constant [3 x i8] c"NO\00", align 1
@.str.2 = private unnamed_addr constant [4 x i8] c"%d\0A\00", align 1

; Function Attrs: noinline nounwind uwtable
define dso_local i32 @main() #0 {
  %1 = alloca i32, align 4
  %2 = alloca [1000 x i8], align 16
  %3 = alloca [10 x i8], align 1
  %4 = alloca i32, align 4
  %5 = alloca i32, align 4
  %6 = alloca i32, align 4
  %7 = alloca i32, align 4
  %8 = alloca i32, align 4
  %9 = alloca i32, align 4
  %10 = alloca i32, align 4
  store i32 0, i32* %1, align 4
  store i32 0, i32* %8, align 4
  %11 = call i32 (i8*, ...) @__isoc99_scanf(i8* getelementptr inbounds ([3 x i8], [3 x i8]* @.str, i64 0, i64 0), i32* %9)
  %12 = getelementptr inbounds [1000 x i8], [1000 x i8]* %2, i64 0, i64 0
  %13 = call i32 (i8*, ...) bitcast (i32 (...)* @gets to i32 (i8*, ...)*)(i8* %12)
  %14 = getelementptr inbounds [1000 x i8], [1000 x i8]* %2, i64 0, i64 0
  %15 = call i32 (i8*, ...) bitcast (i32 (...)* @gets to i32 (i8*, ...)*)(i8* %14)
  store i32 0, i32* %4, align 4
  br label %16

16:                                               ; preds = %89, %0
  %17 = load i32, i32* %4, align 4
  %18 = sext i32 %17 to i64
  %19 = getelementptr inbounds [1000 x i8], [1000 x i8]* %2, i64 0, i64 0
  %20 = call i64 @strlen(i8* %19) #3
  %21 = icmp ult i64 %18, %20
  br i1 %21, label %22, label %92

22:                                               ; preds = %16
  store i32 0, i32* %5, align 4
  br label %23

23:                                               ; preds = %37, %22
  %24 = load i32, i32* %5, align 4
  %25 = load i32, i32* %9, align 4
  %26 = icmp slt i32 %24, %25
  br i1 %26, label %27, label %40

27:                                               ; preds = %23
  %28 = load i32, i32* %5, align 4
  %29 = load i32, i32* %4, align 4
  %30 = add nsw i32 %28, %29
  %31 = sext i32 %30 to i64
  %32 = getelementptr inbounds [1000 x i8], [1000 x i8]* %2, i64 0, i64 %31
  %33 = load i8, i8* %32, align 1
  %34 = load i32, i32* %5, align 4
  %35 = sext i32 %34 to i64
  %36 = getelementptr inbounds [10 x i8], [10 x i8]* %3, i64 0, i64 %35
  store i8 %33, i8* %36, align 1
  br label %37

37:                                               ; preds = %27
  %38 = load i32, i32* %5, align 4
  %39 = add nsw i32 %38, 1
  store i32 %39, i32* %5, align 4
  br label %23

40:                                               ; preds = %23
  store i32 0, i32* %10, align 4
  %41 = load i32, i32* %4, align 4
  store i32 %41, i32* %5, align 4
  br label %42

42:                                               ; preds = %79, %40
  %43 = load i32, i32* %5, align 4
  %44 = sext i32 %43 to i64
  %45 = getelementptr inbounds [1000 x i8], [1000 x i8]* %2, i64 0, i64 0
  %46 = call i64 @strlen(i8* %45) #3
  %47 = icmp ult i64 %44, %46
  br i1 %47, label %48, label %82

48:                                               ; preds = %42
  store i32 0, i32* %7, align 4
  store i32 0, i32* %6, align 4
  br label %49

49:                                               ; preds = %69, %48
  %50 = load i32, i32* %6, align 4
  %51 = load i32, i32* %9, align 4
  %52 = icmp slt i32 %50, %51
  br i1 %52, label %53, label %72

53:                                               ; preds = %49
  %54 = load i32, i32* %5, align 4
  %55 = load i32, i32* %6, align 4
  %56 = add nsw i32 %54, %55
  %57 = sext i32 %56 to i64
  %58 = getelementptr inbounds [1000 x i8], [1000 x i8]* %2, i64 0, i64 %57
  %59 = load i8, i8* %58, align 1
  %60 = sext i8 %59 to i32
  %61 = load i32, i32* %6, align 4
  %62 = sext i32 %61 to i64
  %63 = getelementptr inbounds [10 x i8], [10 x i8]* %3, i64 0, i64 %62
  %64 = load i8, i8* %63, align 1
  %65 = sext i8 %64 to i32
  %66 = icmp ne i32 %60, %65
  br i1 %66, label %67, label %68

67:                                               ; preds = %53
  store i32 1, i32* %7, align 4
  br label %68

68:                                               ; preds = %67, %53
  br label %69

69:                                               ; preds = %68
  %70 = load i32, i32* %6, align 4
  %71 = add nsw i32 %70, 1
  store i32 %71, i32* %6, align 4
  br label %49

72:                                               ; preds = %49
  %73 = load i32, i32* %7, align 4
  %74 = icmp eq i32 %73, 0
  br i1 %74, label %75, label %78

75:                                               ; preds = %72
  %76 = load i32, i32* %10, align 4
  %77 = add nsw i32 %76, 1
  store i32 %77, i32* %10, align 4
  br label %78

78:                                               ; preds = %75, %72
  br label %79

79:                                               ; preds = %78
  %80 = load i32, i32* %5, align 4
  %81 = add nsw i32 %80, 1
  store i32 %81, i32* %5, align 4
  br label %42

82:                                               ; preds = %42
  %83 = load i32, i32* %10, align 4
  %84 = load i32, i32* %8, align 4
  %85 = icmp sgt i32 %83, %84
  br i1 %85, label %86, label %88

86:                                               ; preds = %82
  %87 = load i32, i32* %10, align 4
  store i32 %87, i32* %8, align 4
  br label %88

88:                                               ; preds = %86, %82
  br label %89

89:                                               ; preds = %88
  %90 = load i32, i32* %4, align 4
  %91 = add nsw i32 %90, 1
  store i32 %91, i32* %4, align 4
  br label %16

92:                                               ; preds = %16
  %93 = load i32, i32* %8, align 4
  %94 = icmp sle i32 %93, 1
  br i1 %94, label %95, label %97

95:                                               ; preds = %92
  %96 = call i32 (i8*, ...) @printf(i8* getelementptr inbounds ([3 x i8], [3 x i8]* @.str.1, i64 0, i64 0))
  br label %181

97:                                               ; preds = %92
  %98 = load i32, i32* %8, align 4
  %99 = call i32 (i8*, ...) @printf(i8* getelementptr inbounds ([4 x i8], [4 x i8]* @.str.2, i64 0, i64 0), i32 %98)
  store i32 0, i32* %4, align 4
  br label %100

100:                                              ; preds = %177, %97
  %101 = load i32, i32* %4, align 4
  %102 = sext i32 %101 to i64
  %103 = getelementptr inbounds [1000 x i8], [1000 x i8]* %2, i64 0, i64 0
  %104 = call i64 @strlen(i8* %103) #3
  %105 = icmp ult i64 %102, %104
  br i1 %105, label %106, label %180

106:                                              ; preds = %100
  store i32 0, i32* %5, align 4
  br label %107

107:                                              ; preds = %121, %106
  %108 = load i32, i32* %5, align 4
  %109 = load i32, i32* %9, align 4
  %110 = icmp slt i32 %108, %109
  br i1 %110, label %111, label %124

111:                                              ; preds = %107
  %112 = load i32, i32* %5, align 4
  %113 = load i32, i32* %4, align 4
  %114 = add nsw i32 %112, %113
  %115 = sext i32 %114 to i64
  %116 = getelementptr inbounds [1000 x i8], [1000 x i8]* %2, i64 0, i64 %115
  %117 = load i8, i8* %116, align 1
  %118 = load i32, i32* %5, align 4
  %119 = sext i32 %118 to i64
  %120 = getelementptr inbounds [10 x i8], [10 x i8]* %3, i64 0, i64 %119
  store i8 %117, i8* %120, align 1
  br label %121

121:                                              ; preds = %111
  %122 = load i32, i32* %5, align 4
  %123 = add nsw i32 %122, 1
  store i32 %123, i32* %5, align 4
  br label %107

124:                                              ; preds = %107
  %125 = load i32, i32* %9, align 4
  %126 = sext i32 %125 to i64
  %127 = getelementptr inbounds [10 x i8], [10 x i8]* %3, i64 0, i64 %126
  store i8 0, i8* %127, align 1
  store i32 0, i32* %10, align 4
  %128 = load i32, i32* %4, align 4
  store i32 %128, i32* %5, align 4
  br label %129

129:                                              ; preds = %166, %124
  %130 = load i32, i32* %5, align 4
  %131 = sext i32 %130 to i64
  %132 = getelementptr inbounds [1000 x i8], [1000 x i8]* %2, i64 0, i64 0
  %133 = call i64 @strlen(i8* %132) #3
  %134 = icmp ult i64 %131, %133
  br i1 %134, label %135, label %169

135:                                              ; preds = %129
  store i32 0, i32* %7, align 4
  store i32 0, i32* %6, align 4
  br label %136

136:                                              ; preds = %156, %135
  %137 = load i32, i32* %6, align 4
  %138 = load i32, i32* %9, align 4
  %139 = icmp slt i32 %137, %138
  br i1 %139, label %140, label %159

140:                                              ; preds = %136
  %141 = load i32, i32* %5, align 4
  %142 = load i32, i32* %6, align 4
  %143 = add nsw i32 %141, %142
  %144 = sext i32 %143 to i64
  %145 = getelementptr inbounds [1000 x i8], [1000 x i8]* %2, i64 0, i64 %144
  %146 = load i8, i8* %145, align 1
  %147 = sext i8 %146 to i32
  %148 = load i32, i32* %6, align 4
  %149 = sext i32 %148 to i64
  %150 = getelementptr inbounds [10 x i8], [10 x i8]* %3, i64 0, i64 %149
  %151 = load i8, i8* %150, align 1
  %152 = sext i8 %151 to i32
  %153 = icmp ne i32 %147, %152
  br i1 %153, label %154, label %155

154:                                              ; preds = %140
  store i32 1, i32* %7, align 4
  br label %155

155:                                              ; preds = %154, %140
  br label %156

156:                                              ; preds = %155
  %157 = load i32, i32* %6, align 4
  %158 = add nsw i32 %157, 1
  store i32 %158, i32* %6, align 4
  br label %136

159:                                              ; preds = %136
  %160 = load i32, i32* %7, align 4
  %161 = icmp eq i32 %160, 0
  br i1 %161, label %162, label %165

162:                                              ; preds = %159
  %163 = load i32, i32* %10, align 4
  %164 = add nsw i32 %163, 1
  store i32 %164, i32* %10, align 4
  br label %165

165:                                              ; preds = %162, %159
  br label %166

166:                                              ; preds = %165
  %167 = load i32, i32* %5, align 4
  %168 = add nsw i32 %167, 1
  store i32 %168, i32* %5, align 4
  br label %129

169:                                              ; preds = %129
  %170 = load i32, i32* %10, align 4
  %171 = load i32, i32* %8, align 4
  %172 = icmp eq i32 %170, %171
  br i1 %172, label %173, label %176

173:                                              ; preds = %169
  %174 = getelementptr inbounds [10 x i8], [10 x i8]* %3, i64 0, i64 0
  %175 = call i32 @puts(i8* %174)
  br label %176

176:                                              ; preds = %173, %169
  br label %177

177:                                              ; preds = %176
  %178 = load i32, i32* %4, align 4
  %179 = add nsw i32 %178, 1
  store i32 %179, i32* %4, align 4
  br label %100

180:                                              ; preds = %100
  br label %181

181:                                              ; preds = %180, %95
  %182 = load i32, i32* %1, align 4
  ret i32 %182
}